(dp1
V0020601056
p2
(dp3
S'home'
p4
VMinnesota Timberwolves
p5
sS'away'
p6
VSeattle SuperSonics
p7
sS'crowd'
p8
S'15120'
p9
sS'time'
p10
VTUESDAY, MARCH 27, 2007
p11
ssV0021000344
p12
(dp13
g4
VDetroit Pistons
p14
sg6
VToronto Raptors
p15
sg8
S'13343'
p16
sg10
VSATURDAY, DECEMBER 11, 2010
p17
ssV0021500587
p18
(dp19
g4
VPhiladelphia 76ers
p20
sg6
VChicago Bulls
p21
sg8
S'14063'
p22
sg10
VTHURSDAY, JANUARY 14, 2016
p23
ssV0020700120
p24
(dp25
g4
VPhiladelphia 76ers
p26
sg6
VPortland Trail Blazers
p27
sg8
S'11483'
p28
sg10
VFRIDAY, NOVEMBER 16, 2007
p29
ssV0029900945
p30
(dp31
g4
VLos Angeles Clippers
p32
sg6
VSacramento Kings
p33
sg8
S'18964'
p34
sg10
VSATURDAY, MARCH 18, 2000
p35
ssV0020900559
p36
(dp37
g4
VIndiana Pacers
p38
sg6
VPhoenix Suns
p39
sg8
S'10858'
p40
sg10
VWEDNESDAY, JANUARY 13, 2010
p41
ssV0020200278
p42
(dp43
g4
VLos Angeles Lakers
p44
sg6
VDallas Mavericks
p45
sg8
S'18997'
p46
sg10
VFRIDAY, DECEMBER 6, 2002
p47
ssV0029900965
p48
(dp49
g4
VDallas Mavericks
p50
sg6
VSan Antonio Spurs
p51
sg8
S'15578'
p52
sg10
VTUESDAY, MARCH 21, 2000
p53
ssV0020400085
p54
(dp55
g4
VChicago Bulls
p56
sg6
VLos Angeles Clippers
p57
sg8
S'21764'
p58
sg10
VSATURDAY, NOVEMBER 13, 2004
p59
ssV0021501217
p60
(dp61
g4
VBoston Celtics
p62
sg6
VMiami Heat
p63
sg8
S'18624'
p64
sg10
VWEDNESDAY, APRIL 13, 2016
p65
ssV0020300260
p66
(dp67
g4
VBoston Celtics
p68
sg6
VPhoenix Suns
p69
sg8
S'15116'
p70
sg10
VFRIDAY, DECEMBER 5, 2003
p71
ssV0020500585
p72
(dp73
g4
VMinnesota Timberwolves
p74
sg6
VPhiladelphia 76ers
p75
sg8
S'15893'
p76
sg10
VSUNDAY, JANUARY 22, 2006
p77
ssV0029800582
p78
(dp79
g4
VSan Antonio Spurs
p80
sg6
VHouston Rockets
p81
sg8
S'24077'
p82
sg10
VSUNDAY, APRIL 18, 1999
p83
ssV0021200199
p84
(dp85
g4
VChicago Bulls
p86
sg6
VMilwaukee Bucks
p87
sg8
S'21485'
p88
sg10
VMONDAY, NOVEMBER 26, 2012
p89
ssV0029600830
p90
(dp91
g4
VDallas Mavericks
p92
sg6
VPhoenix Suns
p93
sg8
S'14832'
p94
sg10
VSUNDAY, MARCH 2, 1997
p95
ssV0020300812
p96
(dp97
g4
VCleveland Cavaliers
p98
sg6
VNew Orleans Hornets
p99
sg8
S'17093'
p100
sg10
VMONDAY, FEBRUARY 23, 2004
p101
ssV0020800463
p102
(dp103
g4
VDallas Mavericks
p104
sg6
VMinnesota Timberwolves
p105
sg8
S'20264'
p106
sg10
VTUESDAY, DECEMBER 30, 2008
p107
ssV0020400680
p108
(dp109
g4
VToronto Raptors
p110
sg6
VWashington Wizards
p111
sg8
S'15546'
p112
sg10
VFRIDAY, FEBRUARY 4, 2005
p113
ssV0021000373
p114
(dp115
g4
VNew Orleans Hornets
p116
sg6
VSacramento Kings
p117
sg8
S'13325'
p118
sg10
VWEDNESDAY, DECEMBER 15, 2010
p119
ssV0021600957
p120
(dp121
g4
VSan Antonio Spurs
p122
sg6
VSacramento Kings
p123
sg8
S'18418'
p124
sg10
VWEDNESDAY, MARCH 8, 2017
p125
ssV0021400118
p126
(dp127
g4
VMemphis Grizzlies
p128
sg6
VSacramento Kings
p129
sg8
S'15666'
p130
sg10
VTHURSDAY, NOVEMBER 13, 2014
p131
ssV0020101005
p132
(dp133
g4
VPortland Trail Blazers
p134
sg6
VMemphis Grizzlies
p135
sg8
S'20441'
p136
sg10
VMONDAY, MARCH 25, 2002
p137
ssV0029800600
p138
(dp139
g4
VGolden State Warriors
p140
sg6
VLos Angeles Lakers
p141
sg8
S'20108'
p142
sg10
VTUESDAY, APRIL 20, 1999
p143
ssV0021300984
p144
(dp145
g4
VDetroit Pistons
p146
sg6
VIndiana Pacers
p147
sg8
S'17440'
p148
sg10
VSATURDAY, MARCH 15, 2014
p149
ssV0021400880
p150
(dp151
g4
VBoston Celtics
p152
sg6
VGolden State Warriors
p153
sg8
S'18624'
p154
sg10
VSUNDAY, MARCH 1, 2015
p155
ssV0020200585
p156
(dp157
g4
VPhiladelphia 76ers
p158
sg6
VBoston Celtics
p159
sg8
S'20311'
p160
sg10
VMONDAY, JANUARY 20, 2003
p161
ssV0020000298
p162
(dp163
g4
VSacramento Kings
p164
sg6
VMiami Heat
p165
sg8
S'17317'
p166
sg10
VSUNDAY, DECEMBER 10, 2000
p167
ssV0021200633
p168
(dp169
g4
VAtlanta Hawks
p170
sg6
VBoston Celtics
p171
sg8
S'15595'
p172
sg10
VFRIDAY, JANUARY 25, 2013
p173
ssV0020500960
p174
(dp175
g4
VMiami Heat
p176
sg6
VBoston Celtics
p177
sg8
S'20188'
p178
sg10
VTHURSDAY, MARCH 16, 2006
p179
ssV0029700672
p180
(dp181
g4
VUtah Jazz
p182
sg6
VChicago Bulls
p183
sg8
S'19911'
p184
sg10
VWEDNESDAY, FEBRUARY 4, 1998
p185
ssV0020800121
p186
(dp187
g4
VIndiana Pacers
p188
sg6
VPhiladelphia 76ers
p189
sg8
S'12742'
p190
sg10
VFRIDAY, NOVEMBER 14, 2008
p191
ssV0020201093
p192
(dp193
g4
VMemphis Grizzlies
p194
sg6
VLos Angeles Lakers
p195
sg8
S'19351'
p196
sg10
VFRIDAY, APRIL 4, 2003
p197
ssV0021100571
p198
(dp199
g4
VWashington Wizards
p200
sg6
VLos Angeles Lakers
p201
sg8
S'20282'
p202
sg10
VWEDNESDAY, MARCH 7, 2012
p203
ssV0029600194
p204
(dp205
g4
VUtah Jazz
p206
sg6
VDenver Nuggets
p207
sg8
S'19324'
p208
sg10
VWEDNESDAY, NOVEMBER 27, 1996
p209
ssV0020500597
p210
(dp211
g4
VGolden State Warriors
p212
sg6
VLos Angeles Clippers
p213
sg8
S'17196'
p214
sg10
VMONDAY, JANUARY 23, 2006
p215
ssV0021300268
p216
(dp217
g4
VGolden State Warriors
p218
sg6
VToronto Raptors
p219
sg8
S'19596'
p220
sg10
VTUESDAY, DECEMBER 3, 2013
p221
ssV0020100791
p222
(dp223
g4
VNew Jersey Nets
p224
sg6
VCharlotte Hornets
p225
sg8
S'15516'
p226
sg10
VSUNDAY, FEBRUARY 24, 2002
p227
ssV0029700541
p228
(dp229
g4
VDallas Mavericks
p230
sg6
VMinnesota Timberwolves
p231
sg8
S'15327'
p232
sg10
VSATURDAY, JANUARY 17, 1998
p233
ssV0020900402
p234
(dp235
g4
VChicago Bulls
p236
sg6
VSacramento Kings
p237
sg8
S'19631'
p238
sg10
VMONDAY, DECEMBER 21, 2009
p239
ssV0021600550
p240
(dp241
g4
VGolden State Warriors
p242
sg6
VMemphis Grizzlies
p243
sg8
S'19596'
p244
sg10
VFRIDAY, JANUARY 6, 2017
p245
ssV0020700080
p246
(dp247
g4
VIndiana Pacers
p248
sg6
VDenver Nuggets
p249
sg8
S'12748'
p250
sg10
VSATURDAY, NOVEMBER 10, 2007
p251
ssV0020000883
p252
(dp253
g4
VPhoenix Suns
p254
sg6
VSacramento Kings
p255
sg8
S'19023'
p256
sg10
VWEDNESDAY, MARCH 7, 2001
p257
ssV0021201009
p258
(dp259
g4
VCleveland Cavaliers
p260
sg6
VMiami Heat
p261
sg8
S'20562'
p262
sg10
VWEDNESDAY, MARCH 20, 2013
p263
ssV0020500012
p264
(dp265
g4
VChicago Bulls
p266
sg6
VCharlotte Bobcats
p267
sg8
S'19251'
p268
sg10
VWEDNESDAY, NOVEMBER 2, 2005
p269
ssV0021100096
p270
(dp271
g4
VSacramento Kings
p272
sg6
VMilwaukee Bucks
p273
sg8
S'11813'
p274
sg10
VTHURSDAY, JANUARY 5, 2012
p275
ssV0021100270
p276
(dp277
g4
VOrlando Magic
p278
sg6
VBoston Celtics
p279
sg8
S'18952'
p280
sg10
VTHURSDAY, JANUARY 26, 2012
p281
ssV0020600080
p282
(dp283
g4
VPortland Trail Blazers
p284
sg6
VNew Orleans/Oklahoma City Hornets
p285
sg8
S'14122'
p286
sg10
VFRIDAY, NOVEMBER 10, 2006
p287
ss.